target datalayout = "e-m:e-p270:32:32-p271:32:32-p272:64:64-i64:64-i128:128-f80:128-n8:16:32:64-S128"
target triple = "x86_64-pc-linux-gnu"

%struct._zval_struct = type { %union._zend_value, %union.anon, %union.anon.3 }
%union._zend_value = type { i64 }
%union.anon = type { i32 }
%union.anon.3 = type { i32 }
%struct._zend_op_array = type { i8, [3 x i8], i32, ptr, ptr, ptr, i32, i32, ptr, ptr, ptr, ptr, i32, ptr, i32, i32, i32, ptr, ptr, ptr, ptr, ptr, i32, i32, ptr, ptr, ptr, i32, i32, i32, i32, ptr, ptr, [6 x ptr] }
%struct._zend_op = type { ptr, %union._znode_op, %union._znode_op, %union._znode_op, i32, i32, i8, i8, i8, i8 }
%union._znode_op = type { i32 }
%struct._zend_array = type { %struct._zend_refcounted_h, %union.anon.5, i32, %union.anon.7, i32, i32, i32, i32, i64, ptr }
%struct._zend_refcounted_h = type { i32, %union.anon.4 }
%union.anon.4 = type { i32 }
%union.anon.5 = type { i32 }
%union.anon.7 = type { ptr }
%struct.anon.1 = type { i8, i8, %union.anon.2 }
%union.anon.2 = type { i16 }

; Function Attrs: alwaysinline nounwind uwtable
define internal zeroext i8 @zval_get_type(ptr noundef %0) #1 {
  %2 = alloca ptr, align 8
  store ptr %0, ptr %2, align 8, !tbaa !9
  %3 = load ptr, ptr %2, align 8, !tbaa !9
  %4 = getelementptr inbounds nuw %struct._zval_struct, ptr %3, i32 0, i32 1
  %5 = getelementptr inbounds nuw %struct.anon.1, ptr %4, i32 0, i32 0
  %6 = load i8, ptr %5, align 8, !tbaa !17
  ret i8 %6
}

; Function Attrs: nounwind uwtable
define hidden void @zend_optimizer_migrate_jump(ptr noundef %0, ptr noundef %1, ptr noundef %2) #0 {
  %4 = alloca ptr, align 8
  %5 = alloca ptr, align 8
  %6 = alloca ptr, align 8
  %7 = alloca ptr, align 8
  %8 = alloca ptr, align 8
  %9 = alloca ptr, align 8
  %10 = alloca i32, align 4
  %11 = alloca i64, align 8
  %12 = alloca ptr, align 8
  store ptr %0, ptr %4, align 8, !tbaa !98
  store ptr %1, ptr %5, align 8, !tbaa !100
  store ptr %2, ptr %6, align 8, !tbaa !100
  %13 = load ptr, ptr %5, align 8, !tbaa !100
  %14 = getelementptr inbounds nuw %struct._zend_op, ptr %13, i32 0, i32 6
  %15 = load i8, ptr %14, align 4, !tbaa !102
  %16 = zext i8 %15 to i32
  switch i32 %16, label %198 [
    i32 42, label %17
    i32 162, label %17
    i32 43, label %33
    i32 44, label %33
    i32 46, label %33
    i32 47, label %33
    i32 77, label %33
    i32 125, label %33
    i32 152, label %33
    i32 169, label %33
    i32 151, label %33
    i32 198, label %33
    i32 203, label %33
    i32 208, label %33
    i32 78, label %49
    i32 126, label %49
    i32 107, label %74
    i32 187, label %97
    i32 188, label %97
    i32 195, label %97
  ]

17:                                               ; preds = %3, %3
  br label %18

18:                                               ; preds = %17
  %19 = load ptr, ptr %6, align 8, !tbaa !100
  %20 = load ptr, ptr %6, align 8, !tbaa !100
  %21 = getelementptr inbounds nuw %struct._zend_op, ptr %20, i32 0, i32 1
  %22 = load i32, ptr %21, align 8, !tbaa !17
  %23 = sext i32 %22 to i64
  %24 = getelementptr inbounds i8, ptr %19, i64 %23
  %25 = load ptr, ptr %5, align 8, !tbaa !100
  %26 = ptrtoint ptr %24 to i64
  %27 = ptrtoint ptr %25 to i64
  %28 = sub i64 %26, %27
  %29 = trunc i64 %28 to i32
  %30 = load ptr, ptr %5, align 8, !tbaa !100
  %31 = getelementptr inbounds nuw %struct._zend_op, ptr %30, i32 0, i32 1
  store i32 %29, ptr %31, align 8, !tbaa !17
  br label %32

32:                                               ; preds = %18
  br label %198

33:                                               ; preds = %3, %3, %3, %3, %3, %3, %3, %3, %3, %3, %3, %3
  br label %34

34:                                               ; preds = %33
  %35 = load ptr, ptr %6, align 8, !tbaa !100
  %36 = load ptr, ptr %6, align 8, !tbaa !100
  %37 = getelementptr inbounds nuw %struct._zend_op, ptr %36, i32 0, i32 2
  %38 = load i32, ptr %37, align 4, !tbaa !17
  %39 = sext i32 %38 to i64
  %40 = getelementptr inbounds i8, ptr %35, i64 %39
  %41 = load ptr, ptr %5, align 8, !tbaa !100
  %42 = ptrtoint ptr %40 to i64
  %43 = ptrtoint ptr %41 to i64
  %44 = sub i64 %42, %43
  %45 = trunc i64 %44 to i32
  %46 = load ptr, ptr %5, align 8, !tbaa !100
  %47 = getelementptr inbounds nuw %struct._zend_op, ptr %46, i32 0, i32 2
  store i32 %45, ptr %47, align 4, !tbaa !17
  br label %48

48:                                               ; preds = %34
  br label %198

49:                                               ; preds = %3, %3
  %50 = load ptr, ptr %4, align 8, !tbaa !98
  %51 = getelementptr inbounds nuw %struct._zend_op_array, ptr %50, i32 0, i32 17
  %52 = load ptr, ptr %51, align 8, !tbaa !119
  %53 = load ptr, ptr %6, align 8, !tbaa !100
  %54 = load ptr, ptr %6, align 8, !tbaa !100
  %55 = getelementptr inbounds nuw %struct._zend_op, ptr %54, i32 0, i32 4
  %56 = load i32, ptr %55, align 4, !tbaa !105
  %57 = sext i32 %56 to i64
  %58 = getelementptr inbounds i8, ptr %53, i64 %57
  %59 = load ptr, ptr %4, align 8, !tbaa !98
  %60 = getelementptr inbounds nuw %struct._zend_op_array, ptr %59, i32 0, i32 17
  %61 = load ptr, ptr %60, align 8, !tbaa !119
  %62 = ptrtoint ptr %58 to i64
  %63 = ptrtoint ptr %61 to i64
  %64 = sub i64 %62, %63
  %65 = sdiv exact i64 %64, 32
  %66 = getelementptr inbounds %struct._zend_op, ptr %52, i64 %65
  %67 = load ptr, ptr %5, align 8, !tbaa !100
  %68 = ptrtoint ptr %66 to i64
  %69 = ptrtoint ptr %67 to i64
  %70 = sub i64 %68, %69
  %71 = trunc i64 %70 to i32
  %72 = load ptr, ptr %5, align 8, !tbaa !100
  %73 = getelementptr inbounds nuw %struct._zend_op, ptr %72, i32 0, i32 4
  store i32 %71, ptr %73, align 4, !tbaa !105
  br label %198

74:                                               ; preds = %3
  %75 = load ptr, ptr %6, align 8, !tbaa !100
  %76 = getelementptr inbounds nuw %struct._zend_op, ptr %75, i32 0, i32 4
  %77 = load i32, ptr %76, align 4, !tbaa !105
  %78 = and i32 %77, 1
  %79 = icmp ne i32 %78, 0
  br i1 %79, label %96, label %80

80:                                               ; preds = %74
  br label %81

81:                                               ; preds = %80
  %82 = load ptr, ptr %6, align 8, !tbaa !100
  %83 = load ptr, ptr %6, align 8, !tbaa !100
  %84 = getelementptr inbounds nuw %struct._zend_op, ptr %83, i32 0, i32 2
  %85 = load i32, ptr %84, align 4, !tbaa !17
  %86 = sext i32 %85 to i64
  %87 = getelementptr inbounds i8, ptr %82, i64 %86
  %88 = load ptr, ptr %5, align 8, !tbaa !100
  %89 = ptrtoint ptr %87 to i64
  %90 = ptrtoint ptr %88 to i64
  %91 = sub i64 %89, %90
  %92 = trunc i64 %91 to i32
  %93 = load ptr, ptr %5, align 8, !tbaa !100
  %94 = getelementptr inbounds nuw %struct._zend_op, ptr %93, i32 0, i32 2
  store i32 %92, ptr %94, align 4, !tbaa !17
  br label %95

95:                                               ; preds = %81
  br label %96

96:                                               ; preds = %95, %74
  br label %198

97:                                               ; preds = %3, %3, %3
  call void @llvm.lifetime.start.p0(i64 8, ptr %7) #13
  %98 = load ptr, ptr %4, align 8, !tbaa !98
  %99 = getelementptr inbounds nuw %struct._zend_op_array, ptr %98, i32 0, i32 31
  %100 = load ptr, ptr %99, align 8, !tbaa !106
  %101 = load ptr, ptr %6, align 8, !tbaa !100
  %102 = getelementptr inbounds nuw %struct._zend_op, ptr %101, i32 0, i32 2
  %103 = load i32, ptr %102, align 4, !tbaa !17
  %104 = zext i32 %103 to i64
  %105 = getelementptr inbounds nuw %struct._zval_struct, ptr %100, i64 %104
  %106 = getelementptr inbounds nuw %struct._zval_struct, ptr %105, i32 0, i32 0
  %107 = load ptr, ptr %106, align 8, !tbaa !17
  store ptr %107, ptr %7, align 8, !tbaa !96
  call void @llvm.lifetime.start.p0(i64 8, ptr %8) #13
  br label %108

108:                                              ; preds = %97
  call void @llvm.lifetime.start.p0(i64 8, ptr %9) #13
  %109 = load ptr, ptr %7, align 8, !tbaa !96
  store ptr %109, ptr %9, align 8, !tbaa !96
  call void @llvm.lifetime.start.p0(i64 4, ptr %10) #13
  %110 = load ptr, ptr %9, align 8, !tbaa !96
  %111 = getelementptr inbounds nuw %struct._zend_array, ptr %110, i32 0, i32 4
  %112 = load i32, ptr %111, align 8, !tbaa !127
  store i32 %112, ptr %10, align 4, !tbaa !29
  call void @llvm.lifetime.start.p0(i64 8, ptr %11) #13
  %113 = load ptr, ptr %9, align 8, !tbaa !96
  %114 = getelementptr inbounds nuw %struct._zend_array, ptr %113, i32 0, i32 1
  %115 = load i32, ptr %114, align 8, !tbaa !17
  %116 = xor i32 %115, -1
  %117 = and i32 %116, 4
  %118 = zext i32 %117 to i64
  %119 = mul i64 %118, 4
  %120 = add i64 16, %119
  store i64 %120, ptr %11, align 8, !tbaa !20
  call void @llvm.lifetime.start.p0(i64 8, ptr %12) #13
  %121 = load ptr, ptr %9, align 8, !tbaa !96
  %122 = getelementptr inbounds nuw %struct._zend_array, ptr %121, i32 0, i32 3
  %123 = load ptr, ptr %122, align 8, !tbaa !17
  store ptr %123, ptr %12, align 8, !tbaa !9
  br label %124

124:                                              ; preds = %165, %108
  %125 = load i32, ptr %10, align 4, !tbaa !29
  %126 = icmp ugt i32 %125, 0
  br i1 %126, label %127, label %171

127:                                              ; preds = %124
  %128 = load ptr, ptr %12, align 8, !tbaa !9
  %129 = call zeroext i8 @zval_get_type(ptr noundef %128)
  %130 = zext i8 %129 to i32
  %131 = icmp eq i32 %130, 0
  %132 = xor i1 %131, true
  %133 = xor i1 %132, true
  %134 = zext i1 %133 to i32
  %135 = sext i32 %134 to i64
  %136 = call i64 @llvm.expect.i64(i64 %135, i64 0)
  %137 = icmp ne i64 %136, 0
  br i1 %137, label %138, label %139

138:                                              ; preds = %127
  br label %165

139:                                              ; preds = %127
  %140 = load ptr, ptr %12, align 8, !tbaa !9
  store ptr %140, ptr %8, align 8, !tbaa !9
  %141 = load ptr, ptr %4, align 8, !tbaa !98
  %142 = getelementptr inbounds nuw %struct._zend_op_array, ptr %141, i32 0, i32 17
  %143 = load ptr, ptr %142, align 8, !tbaa !119
  %144 = load ptr, ptr %6, align 8, !tbaa !100
  %145 = load ptr, ptr %8, align 8, !tbaa !9
  %146 = getelementptr inbounds nuw %struct._zval_struct, ptr %145, i32 0, i32 0
  %147 = load i64, ptr %146, align 8, !tbaa !17
  %148 = trunc i64 %147 to i32
  %149 = sext i32 %148 to i64
  %150 = getelementptr inbounds i8, ptr %144, i64 %149
  %151 = load ptr, ptr %4, align 8, !tbaa !98
  %152 = getelementptr inbounds nuw %struct._zend_op_array, ptr %151, i32 0, i32 17
  %153 = load ptr, ptr %152, align 8, !tbaa !119
  %154 = ptrtoint ptr %150 to i64
  %155 = ptrtoint ptr %153 to i64
  %156 = sub i64 %154, %155
  %157 = sdiv exact i64 %156, 32
  %158 = getelementptr inbounds %struct._zend_op, ptr %143, i64 %157
  %159 = load ptr, ptr %5, align 8, !tbaa !100
  %160 = ptrtoint ptr %158 to i64
  %161 = ptrtoint ptr %159 to i64
  %162 = sub i64 %160, %161
  %163 = load ptr, ptr %8, align 8, !tbaa !9
  %164 = getelementptr inbounds nuw %struct._zval_struct, ptr %163, i32 0, i32 0
  store i64 %162, ptr %164, align 8, !tbaa !17
  br label %165

165:                                              ; preds = %139, %138
  %166 = load ptr, ptr %12, align 8, !tbaa !9
  %167 = load i64, ptr %11, align 8, !tbaa !20
  %168 = getelementptr inbounds nuw i8, ptr %166, i64 %167
  store ptr %168, ptr %12, align 8, !tbaa !9
  %169 = load i32, ptr %10, align 4, !tbaa !29
  %170 = add i32 %169, -1
  store i32 %170, ptr %10, align 4, !tbaa !29
  br label %124

171:                                              ; preds = %124
  call void @llvm.lifetime.end.p0(i64 8, ptr %12) #13
  call void @llvm.lifetime.end.p0(i64 8, ptr %11) #13
  call void @llvm.lifetime.end.p0(i64 4, ptr %10) #13
  call void @llvm.lifetime.end.p0(i64 8, ptr %9) #13
  br label %172

172:                                              ; preds = %171
  br label %173

173:                                              ; preds = %172
  %174 = load ptr, ptr %4, align 8, !tbaa !98
  %175 = getelementptr inbounds nuw %struct._zend_op_array, ptr %174, i32 0, i32 17
  %176 = load ptr, ptr %175, align 8, !tbaa !119
  %177 = load ptr, ptr %6, align 8, !tbaa !100
  %178 = load ptr, ptr %6, align 8, !tbaa !100
  %179 = getelementptr inbounds nuw %struct._zend_op, ptr %178, i32 0, i32 4
  %180 = load i32, ptr %179, align 4, !tbaa !105
  %181 = sext i32 %180 to i64
  %182 = getelementptr inbounds i8, ptr %177, i64 %181
  %183 = load ptr, ptr %4, align 8, !tbaa !98
  %184 = getelementptr inbounds nuw %struct._zend_op_array, ptr %183, i32 0, i32 17
  %185 = load ptr, ptr %184, align 8, !tbaa !119
  %186 = ptrtoint ptr %182 to i64
  %187 = ptrtoint ptr %185 to i64
  %188 = sub i64 %186, %187
  %189 = sdiv exact i64 %188, 32
  %190 = getelementptr inbounds %struct._zend_op, ptr %176, i64 %189
  %191 = load ptr, ptr %5, align 8, !tbaa !100
  %192 = ptrtoint ptr %190 to i64
  %193 = ptrtoint ptr %191 to i64
  %194 = sub i64 %192, %193
  %195 = trunc i64 %194 to i32
  %196 = load ptr, ptr %5, align 8, !tbaa !100
  %197 = getelementptr inbounds nuw %struct._zend_op, ptr %196, i32 0, i32 4
  store i32 %195, ptr %197, align 4, !tbaa !105
  call void @llvm.lifetime.end.p0(i64 8, ptr %8) #13
  call void @llvm.lifetime.end.p0(i64 8, ptr %7) #13
  br label %198

198:                                              ; preds = %3, %173, %96, %49, %48, %32
  ret void
}