; Function Attrs: nofree norecurse nosync nounwind memory(readwrite, inaccessiblemem: none) uwtable
define hidden void @zend_optimizer_migrate_jump(ptr noundef readonly captures(none) %0, ptr noundef %1, ptr noundef %2) local_unnamed_addr #9 {
  %4 = getelementptr inbounds nuw i8, ptr %1, i64 28
  %5 = load i8, ptr %4, align 4, !tbaa !83
  switch i8 %5, label %91 [
    i8 42, label %6
    i8 -94, label %6
    i8 43, label %16
    i8 44, label %16
    i8 46, label %16
    i8 47, label %16
    i8 77, label %16
    i8 125, label %16
    i8 -104, label %16
    i8 -87, label %16
    i8 -105, label %16
    i8 -58, label %16
    i8 -53, label %16
    i8 -48, label %16
    i8 78, label %26
    i8 126, label %26
    i8 107, label %36
    i8 -69, label %50
    i8 -68, label %50
    i8 -61, label %50
  ]

6:                                                ; preds = %3, %3
  %7 = getelementptr inbounds nuw i8, ptr %2, i64 8
  %8 = load i32, ptr %7, align 8, !tbaa !20
  %9 = sext i32 %8 to i64
  %10 = getelementptr inbounds i8, ptr %2, i64 %9
  %11 = ptrtoint ptr %10 to i64
  %12 = ptrtoint ptr %1 to i64
  %13 = sub i64 %11, %12
  %14 = trunc i64 %13 to i32
  %15 = getelementptr inbounds nuw i8, ptr %1, i64 8
  store i32 %14, ptr %15, align 8, !tbaa !20
  br label %91

16:                                               ; preds = %3, %3, %3, %3, %3, %3, %3, %3, %3, %3, %3, %3
  %17 = getelementptr inbounds nuw i8, ptr %2, i64 12
  %18 = load i32, ptr %17, align 4, !tbaa !20
  %19 = sext i32 %18 to i64
  %20 = getelementptr inbounds i8, ptr %2, i64 %19
  %21 = ptrtoint ptr %20 to i64
  %22 = ptrtoint ptr %1 to i64
  %23 = sub i64 %21, %22
  %24 = trunc i64 %23 to i32
  %25 = getelementptr inbounds nuw i8, ptr %1, i64 12
  store i32 %24, ptr %25, align 4, !tbaa !20
  br label %91

26:                                               ; preds = %3, %3
  %27 = getelementptr inbounds nuw i8, ptr %2, i64 20
  %28 = load i32, ptr %27, align 4, !tbaa !86
  %29 = sext i32 %28 to i64
  %30 = getelementptr inbounds i8, ptr %2, i64 %29
  %31 = ptrtoint ptr %30 to i64
  %32 = ptrtoint ptr %1 to i64
  %33 = sub i64 %31, %32
  %34 = trunc i64 %33 to i32
  %35 = getelementptr inbounds nuw i8, ptr %1, i64 20
  store i32 %34, ptr %35, align 4, !tbaa !86
  br label %91

36:                                               ; preds = %3
  %37 = getelementptr inbounds nuw i8, ptr %2, i64 20
  %38 = load i32, ptr %37, align 4, !tbaa !86
  %39 = and i32 %38, 1
  %.not44 = icmp eq i32 %39, 0
  br i1 %.not44, label %40, label %91

40:                                               ; preds = %36
  %41 = getelementptr inbounds nuw i8, ptr %2, i64 12
  %42 = load i32, ptr %41, align 4, !tbaa !20
  %43 = sext i32 %42 to i64
  %44 = getelementptr inbounds i8, ptr %2, i64 %43
  %45 = ptrtoint ptr %44 to i64
  %46 = ptrtoint ptr %1 to i64
  %47 = sub i64 %45, %46
  %48 = trunc i64 %47 to i32
  %49 = getelementptr inbounds nuw i8, ptr %1, i64 12
  store i32 %48, ptr %49, align 4, !tbaa !20
  br label %91

50:                                               ; preds = %3, %3, %3
  %51 = getelementptr inbounds nuw i8, ptr %0, i64 192
  %52 = load ptr, ptr %51, align 8, !tbaa !87
  %53 = getelementptr inbounds nuw i8, ptr %2, i64 12
  %54 = load i32, ptr %53, align 4, !tbaa !20
  %55 = zext i32 %54 to i64
  %56 = getelementptr inbounds nuw %struct._zval_struct, ptr %52, i64 %55
  %57 = load ptr, ptr %56, align 8, !tbaa !20
  %58 = getelementptr inbounds nuw i8, ptr %57, i64 24
  %59 = load i32, ptr %58, align 8, !tbaa !105
  %.not45 = icmp eq i32 %59, 0
  br i1 %.not45, label %.._crit_edge_crit_edge, label %.lr.ph

.._crit_edge_crit_edge:                           ; preds = %50
  %.pre = ptrtoint ptr %1 to i64
  br label %._crit_edge

.lr.ph:                                           ; preds = %50
  %60 = getelementptr inbounds nuw i8, ptr %57, i64 16
  %61 = load ptr, ptr %60, align 8, !tbaa !20
  %62 = getelementptr inbounds nuw i8, ptr %57, i64 8
  %63 = load i32, ptr %62, align 8, !tbaa !20
  %64 = shl i32 %63, 2
  %65 = and i32 %64, 16
  %66 = xor i32 %65, 16
  %67 = ptrtoint ptr %1 to i64
  %68 = zext nneg i32 %66 to i64
  br label %69

69:                                               ; preds = %.lr.ph, %79
  %.047 = phi ptr [ %61, %.lr.ph ], [ %81, %79 ]
  %.04346 = phi i32 [ %59, %.lr.ph ], [ %82, %79 ]
  %70 = getelementptr inbounds nuw i8, ptr %.047, i64 8
  %71 = load i8, ptr %70, align 8, !tbaa !20
  %72 = icmp eq i8 %71, 0
  br i1 %72, label %79, label %73, !prof !106

73:                                               ; preds = %69
  %74 = load i64, ptr %.047, align 8, !tbaa !20
  %sext = shl i64 %74, 32
  %75 = ashr exact i64 %sext, 32
  %76 = getelementptr inbounds i8, ptr %2, i64 %75
  %77 = ptrtoint ptr %76 to i64
  %78 = sub i64 %77, %67
  store i64 %78, ptr %.047, align 8, !tbaa !20
  br label %79

79:                                               ; preds = %69, %73
  %80 = getelementptr inbounds nuw i8, ptr %.047, i64 %68
  %81 = getelementptr inbounds nuw i8, ptr %80, i64 16
  %82 = add i32 %.04346, -1
  %.not = icmp eq i32 %82, 0
  br i1 %.not, label %._crit_edge, label %69

._crit_edge:                                      ; preds = %79, %.._crit_edge_crit_edge
  %.pre-phi = phi i64 [ %.pre, %.._crit_edge_crit_edge ], [ %67, %79 ]
  %83 = getelementptr inbounds nuw i8, ptr %2, i64 20
  %84 = load i32, ptr %83, align 4, !tbaa !86
  %85 = sext i32 %84 to i64
  %86 = getelementptr inbounds i8, ptr %2, i64 %85
  %87 = ptrtoint ptr %86 to i64
  %88 = sub i64 %87, %.pre-phi
  %89 = trunc i64 %88 to i32
  %90 = getelementptr inbounds nuw i8, ptr %1, i64 20
  store i32 %89, ptr %90, align 4, !tbaa !86
  br label %91

91:                                               ; preds = %36, %40, %._crit_edge, %26, %16, %6, %3
  ret void
}